; ModuleID = 'source-C-CXX/39/603.c'
source_filename = "source-C-CXX/39/603.c"
target datalayout = "e-m:e-p270:32:32-p271:32:32-p272:64:64-i64:64-f80:128-n8:16:32:64-S128"
target triple = "x86_64-pc-linux-gnu"

@.str = private unnamed_addr constant [12 x i8] c"%f%f%f%f%lf\00", align 1
@.str.2 = private unnamed_addr constant [6 x i8] c"%.4f\0A\00", align 1
@str = private unnamed_addr constant [14 x i8] c"Invalid input\00", align 1

; Function Attrs: nofree nounwind sspstrong uwtable
define dso_local i32 @main(i32 %0, i8** nocapture readnone %1) local_unnamed_addr #0 {
  %3 = alloca float, align 4
  %4 = alloca float, align 4
  %5 = alloca float, align 4
  %6 = alloca float, align 4
  %7 = alloca double, align 8
  %8 = bitcast float* %3 to i8*
  call void @llvm.lifetime.start.p0i8(i64 4, i8* nonnull %8) #5
  %9 = bitcast float* %4 to i8*
  call void @llvm.lifetime.start.p0i8(i64 4, i8* nonnull %9) #5
  %10 = bitcast float* %5 to i8*
  call void @llvm.lifetime.start.p0i8(i64 4, i8* nonnull %10) #5
  %11 = bitcast float* %6 to i8*
  call void @llvm.lifetime.start.p0i8(i64 4, i8* nonnull %11) #5
  %12 = bitcast double* %7 to i8*
  call void @llvm.lifetime.start.p0i8(i64 8, i8* nonnull %12) #5
  %13 = call i32 (i8*, ...) @__isoc99_scanf(i8* getelementptr inbounds ([12 x i8], [12 x i8]* @.str, i64 0, i64 0), float* nonnull %3, float* nonnull %4, float* nonnull %5, float* nonnull %6, double* nonnull %7)
  %14 = load float, float* %3, align 4, !tbaa !5
  %15 = load float, float* %4, align 4, !tbaa !5
  %16 = fadd float %14, %15
  %17 = load float, float* %5, align 4, !tbaa !5
  %18 = fadd float %16, %17
  %19 = load float, float* %6, align 4, !tbaa !5
  %20 = fadd float %18, %19
  %21 = fmul float %20, 5.000000e-01
  %22 = fpext float %21 to double
  %23 = load double, double* %7, align 8, !tbaa !9
  %24 = fdiv double %23, 3.600000e+02
  %25 = fmul double %24, 3.140000e+00
  %26 = call double @cos(double %25) #5
  %27 = fmul double %26, %26
  %28 = load float, float* %3, align 4, !tbaa !5
  %29 = fpext float %28 to double
  %30 = fsub double %22, %29
  %31 = load float, float* %4, align 4, !tbaa !5
  %32 = fpext float %31 to double
  %33 = fsub double %22, %32
  %34 = fmul double %30, %33
  %35 = load float, float* %5, align 4, !tbaa !5
  %36 = fpext float %35 to double
  %37 = fsub double %22, %36
  %38 = fmul double %34, %37
  %39 = load float, float* %6, align 4, !tbaa !5
  %40 = fpext float %39 to double
  %41 = fsub double %22, %40
  %42 = fmul double %38, %41
  %43 = fmul float %28, %31
  %44 = fmul float %43, %35
  %45 = fmul float %44, %39
  %46 = fpext float %45 to double
  %47 = fmul double %27, %46
  %48 = fsub double %42, %47
  %49 = fcmp olt double %48, 0.000000e+00
  br i1 %49, label %50, label %52

50:                                               ; preds = %2
  %51 = call i32 @puts(i8* nonnull dereferenceable(1) getelementptr inbounds ([14 x i8], [14 x i8]* @str, i64 0, i64 0))
  br label %55

52:                                               ; preds = %2
  %53 = call double @sqrt(double %48) #5
  %54 = call i32 (i8*, ...) @printf(i8* nonnull dereferenceable(1) getelementptr inbounds ([6 x i8], [6 x i8]* @.str.2, i64 0, i64 0), double %53)
  br label %55

55:                                               ; preds = %52, %50
  call void @llvm.lifetime.end.p0i8(i64 8, i8* nonnull %12) #5
  call void @llvm.lifetime.end.p0i8(i64 4, i8* nonnull %11) #5
  call void @llvm.lifetime.end.p0i8(i64 4, i8* nonnull %10) #5
  call void @llvm.lifetime.end.p0i8(i64 4, i8* nonnull %9) #5
  call void @llvm.lifetime.end.p0i8(i64 4, i8* nonnull %8) #5
  ret i32 0
}

; Function Attrs: argmemonly mustprogress nofree nosync nounwind willreturn
declare void @llvm.lifetime.start.p0i8(i64 immarg, i8* nocapture) #1

; Function Attrs: nofree nounwind
declare noundef i32 @__isoc99_scanf(i8* nocapture noundef readonly, ...) local_unnamed_addr #2

; Function Attrs: mustprogress nofree nounwind willreturn
declare double @cos(double) local_unnamed_addr #3

; Function Attrs: nofree nounwind
declare noundef i32 @printf(i8* nocapture noundef readonly, ...) local_unnamed_addr #2

; Function Attrs: mustprogress nofree nounwind willreturn
declare double @sqrt(double) local_unnamed_addr #3

; Function Attrs: argmemonly mustprogress nofree nosync nounwind willreturn
declare void @llvm.lifetime.end.p0i8(i64 immarg, i8* nocapture) #1

; Function Attrs: nofree nounwind
declare noundef i32 @puts(i8* nocapture noundef readonly) local_unnamed_addr #4


!llvm.module.flags = !{!0, !1, !2, !3}
!llvm.ident = !{!4}

!0 = !{i32 1, !"wchar_size", i32 4}
!1 = !{i32 7, !"PIC Level", i32 2}
!2 = !{i32 7, !"PIE Level", i32 2}
!3 = !{i32 7, !"uwtable", i32 1}
!4 = !{!"clang version 13.0.0"}
!5 = !{!6, !6, i64 0}
!6 = !{!"float", !7, i64 0}
!7 = !{!"omnipotent char", !8, i64 0}
!8 = !{!"Simple C/C++ TBAA"}
!9 = !{!10, !10, i64 0}
!10 = !{!"double", !7, i64 0}
